target datalayout = "e-m:e-p270:32:32-p271:32:32-p272:64:64-i64:64-i128:128-f80:128-n8:16:32:64-S128"
target triple = "x86_64-pc-linux-gnu"

%struct._php_stream_xport_param = type { i32, i8, %struct.anon.8, %struct.anon.9 }
%struct.anon.8 = type { ptr, i64, ptr, ptr, ptr, i64, i32, i32, i32 }
%struct.anon.9 = type { ptr, ptr, i32, ptr, ptr, i32, i32 }

; Function Attrs: nounwind uwtable
define i32 @php_stream_xport_accept(ptr noundef %0, ptr noundef %1, ptr noundef %2, ptr noundef %3, ptr noundef %4, ptr noundef %5, ptr noundef %6) #0 {
  %8 = alloca i32, align 4
  %9 = alloca ptr, align 8
  %10 = alloca ptr, align 8
  %11 = alloca ptr, align 8
  %12 = alloca ptr, align 8
  %13 = alloca ptr, align 8
  %14 = alloca ptr, align 8
  %15 = alloca ptr, align 8
  %16 = alloca %struct._php_stream_xport_param, align 8
  %17 = alloca i32, align 4
  store ptr %0, ptr %9, align 8
  store ptr %1, ptr %10, align 8
  store ptr %2, ptr %11, align 8
  store ptr %3, ptr %12, align 8
  store ptr %4, ptr %13, align 8
  store ptr %5, ptr %14, align 8
  store ptr %6, ptr %15, align 8
  call void @llvm.memset.p0.i64(ptr align 8 %16, i8 0, i64 120, i1 false)
  %18 = getelementptr inbounds %struct._php_stream_xport_param, ptr %16, i32 0, i32 0
  store i32 3, ptr %18, align 8
  %19 = load ptr, ptr %14, align 8
  %20 = getelementptr inbounds %struct._php_stream_xport_param, ptr %16, i32 0, i32 2
  %21 = getelementptr inbounds %struct.anon.8, ptr %20, i32 0, i32 2
  store ptr %19, ptr %21, align 8
  %22 = load ptr, ptr %12, align 8
  %23 = icmp ne ptr %22, null
  %24 = select i1 %23, i32 1, i32 0
  %25 = getelementptr inbounds %struct._php_stream_xport_param, ptr %16, i32 0, i32 1
  %26 = trunc i32 %24 to i8
  %27 = load i8, ptr %25, align 4
  %28 = and i8 %26, 1
  %29 = and i8 %27, -2
  %30 = or i8 %29, %28
  store i8 %30, ptr %25, align 4
  %31 = load ptr, ptr %11, align 8
  %32 = icmp ne ptr %31, null
  %33 = select i1 %32, i32 1, i32 0
  %34 = getelementptr inbounds %struct._php_stream_xport_param, ptr %16, i32 0, i32 1
  %35 = trunc i32 %33 to i8
  %36 = load i8, ptr %34, align 4
  %37 = and i8 %35, 1
  %38 = shl i8 %37, 1
  %39 = and i8 %36, -3
  %40 = or i8 %39, %38
  store i8 %40, ptr %34, align 4
  %41 = load ptr, ptr %15, align 8
  %42 = icmp ne ptr %41, null
  %43 = select i1 %42, i32 1, i32 0
  %44 = getelementptr inbounds %struct._php_stream_xport_param, ptr %16, i32 0, i32 1
  %45 = trunc i32 %43 to i8
  %46 = load i8, ptr %44, align 4
  %47 = and i8 %45, 1
  %48 = shl i8 %47, 2
  %49 = and i8 %46, -5
  %50 = or i8 %49, %48
  store i8 %50, ptr %44, align 4
  %51 = load ptr, ptr %9, align 8
  %52 = call i32 @_php_stream_set_option(ptr noundef %51, i32 noundef 7, i32 noundef 0, ptr noundef %16)
  store i32 %52, ptr %17, align 4
  %53 = load i32, ptr %17, align 4
  %54 = icmp eq i32 %53, 0
  br i1 %54, label %55, label %91

55:                                               ; preds = %7
  %56 = getelementptr inbounds %struct._php_stream_xport_param, ptr %16, i32 0, i32 3
  %57 = getelementptr inbounds %struct.anon.9, ptr %56, i32 0, i32 0
  %58 = load ptr, ptr %57, align 8
  %59 = load ptr, ptr %10, align 8
  store ptr %58, ptr %59, align 8
  %60 = load ptr, ptr %12, align 8
  %61 = icmp ne ptr %60, null
  br i1 %61, label %62, label %71

62:                                               ; preds = %55
  %63 = getelementptr inbounds %struct._php_stream_xport_param, ptr %16, i32 0, i32 3
  %64 = getelementptr inbounds %struct.anon.9, ptr %63, i32 0, i32 1
  %65 = load ptr, ptr %64, align 8
  %66 = load ptr, ptr %12, align 8
  store ptr %65, ptr %66, align 8
  %67 = getelementptr inbounds %struct._php_stream_xport_param, ptr %16, i32 0, i32 3
  %68 = getelementptr inbounds %struct.anon.9, ptr %67, i32 0, i32 2
  %69 = load i32, ptr %68, align 8
  %70 = load ptr, ptr %13, align 8
  store i32 %69, ptr %70, align 4
  br label %71

71:                                               ; preds = %62, %55
  %72 = load ptr, ptr %11, align 8
  %73 = icmp ne ptr %72, null
  br i1 %73, label %74, label %79

74:                                               ; preds = %71
  %75 = getelementptr inbounds %struct._php_stream_xport_param, ptr %16, i32 0, i32 3
  %76 = getelementptr inbounds %struct.anon.9, ptr %75, i32 0, i32 3
  %77 = load ptr, ptr %76, align 8
  %78 = load ptr, ptr %11, align 8
  store ptr %77, ptr %78, align 8
  br label %79

79:                                               ; preds = %74, %71
  %80 = load ptr, ptr %15, align 8
  %81 = icmp ne ptr %80, null
  br i1 %81, label %82, label %87

82:                                               ; preds = %79
  %83 = getelementptr inbounds %struct._php_stream_xport_param, ptr %16, i32 0, i32 3
  %84 = getelementptr inbounds %struct.anon.9, ptr %83, i32 0, i32 4
  %85 = load ptr, ptr %84, align 8
  %86 = load ptr, ptr %15, align 8
  store ptr %85, ptr %86, align 8
  br label %87

87:                                               ; preds = %82, %79
  %88 = getelementptr inbounds %struct._php_stream_xport_param, ptr %16, i32 0, i32 3
  %89 = getelementptr inbounds %struct.anon.9, ptr %88, i32 0, i32 5
  %90 = load i32, ptr %89, align 8
  store i32 %90, ptr %8, align 4
  br label %93

91:                                               ; preds = %7
  %92 = load i32, ptr %17, align 4
  store i32 %92, ptr %8, align 4
  br label %93

93:                                               ; preds = %91, %87
  %94 = load i32, ptr %8, align 4
  ret i32 %94
}