; Function Attrs: nounwind uwtable
define i32 @php_stream_xport_accept(ptr noundef %0, ptr nocapture noundef writeonly %1, ptr noundef writeonly %2, ptr noundef writeonly %3, ptr nocapture noundef writeonly %4, ptr noundef %5, ptr noundef writeonly %6) local_unnamed_addr #1 {
  %8 = alloca %struct._php_stream_xport_param, align 8
  call void @llvm.memset.p0.i64(ptr noundef nonnull align 8 dereferenceable(120) %8, i8 0, i64 120, i1 false)
  store i32 3, ptr %8, align 8
  %9 = getelementptr inbounds i8, ptr %8, i64 24
  store ptr %5, ptr %9, align 8
  %.not = icmp ne ptr %3, null
  %10 = getelementptr inbounds i8, ptr %8, i64 4
  %11 = zext i1 %.not to i8
  %.not19.not = icmp eq ptr %2, null
  %12 = select i1 %.not19.not, i8 0, i8 2
  %.not20.not = icmp eq ptr %6, null
  %13 = select i1 %.not20.not, i8 0, i8 4
  %14 = or disjoint i8 %12, %11
  %15 = or disjoint i8 %14, %13
  store i8 %15, ptr %10, align 4
  %16 = call i32 @_php_stream_set_option(ptr noundef %0, i32 noundef 7, i32 noundef 0, ptr noundef nonnull %8) #14
  %17 = icmp eq i32 %16, 0
  br i1 %17, label %18, label %37

18:                                               ; preds = %7
  %19 = getelementptr inbounds i8, ptr %8, i64 72
  %20 = load ptr, ptr %19, align 8
  store ptr %20, ptr %1, align 8
  br i1 %.not, label %21, label %26

21:                                               ; preds = %18
  %22 = getelementptr inbounds i8, ptr %8, i64 80
  %23 = load ptr, ptr %22, align 8
  store ptr %23, ptr %3, align 8
  %24 = getelementptr inbounds i8, ptr %8, i64 88
  %25 = load i32, ptr %24, align 8
  store i32 %25, ptr %4, align 4
  br label %26

26:                                               ; preds = %21, %18
  br i1 %.not19.not, label %30, label %27

27:                                               ; preds = %26
  %28 = getelementptr inbounds i8, ptr %8, i64 96
  %29 = load ptr, ptr %28, align 8
  store ptr %29, ptr %2, align 8
  br label %30

30:                                               ; preds = %27, %26
  br i1 %.not20.not, label %34, label %31

31:                                               ; preds = %30
  %32 = getelementptr inbounds i8, ptr %8, i64 104
  %33 = load ptr, ptr %32, align 8
  store ptr %33, ptr %6, align 8
  br label %34

34:                                               ; preds = %31, %30
  %35 = getelementptr inbounds i8, ptr %8, i64 112
  %36 = load i32, ptr %35, align 8
  br label %37

37:                                               ; preds = %7, %34
  %.0 = phi i32 [ %36, %34 ], [ %16, %7 ]
  ret i32 %.0
}